target datalayout = "e-m:e-p270:32:32-p271:32:32-p272:64:64-i64:64-i128:128-f80:128-n8:16:32:64-S128"
target triple = "x86_64-pc-linux-gnu"

%struct.IDAMemRec = type { double, ptr, ptr, i32, double, double, ptr, i32, ptr, ptr, i32, ptr, ptr, i32, i32, double, double, ptr, i32, i32, i32, ptr, ptr, i32, ptr, ptr, ptr, i32, double, i32, i32, double, ptr, ptr, i32, ptr, ptr, i32, i32, i32, double, ptr, ptr, [6 x ptr], [6 x double], [6 x double], [6 x double], [6 x double], [6 x double], ptr, ptr, ptr, ptr, ptr, ptr, ptr, ptr, ptr, ptr, ptr, ptr, ptr, ptr, ptr, [6 x ptr], ptr, ptr, ptr, ptr, [6 x ptr], ptr, ptr, ptr, ptr, ptr, ptr, ptr, ptr, ptr, ptr, ptr, ptr, ptr, ptr, [6 x ptr], ptr, ptr, ptr, ptr, ptr, double, ptr, ptr, i32, i32, i32, i32, i32, i32, i32, double, double, double, i32, double, i32, i32, i32, i32, double, double, double, double, double, double, double, double, double, double, double, double, double, double, i32, i32, i32, i32, i32, i64, double, i32, i64, i64, i64, i64, i64, i64, i64, i64, i64, i64, i64, i64, i64, i64, i64, i64, i64, i64, i64, i64, i64, i64, i64, i64, ptr, ptr, ptr, i32, i32, i32, i32, i32, i32, i32, i32, i32, i32, i32, i32, i32, ptr, ptr, ptr, ptr, ptr, ptr, i32, i32, i32, i32, i32, i32, double, double, double, ptr, i32, ptr, ptr, double, double, double, ptr, ptr, ptr, double, double, i32, i32, i64, ptr, i32, i32, ptr, i32 }
%struct.IDAadjMemRec = type { double, double, i32, i32, double, ptr, i32, ptr, i32, ptr, ptr, i32, i64, ptr, i64, i32, ptr, ptr, ptr, ptr, i32, i32, i32, i32, i32, [6 x ptr], [6 x ptr], [6 x double], ptr, ptr, ptr, ptr, i64 }
%struct.IDABMemRec = type { i32, double, ptr, i32, i32, ptr, ptr, ptr, ptr, ptr, ptr, ptr, ptr, ptr, double, ptr, ptr, ptr }

@.str = private unnamed_addr constant [5 x i8] c"IDAA\00", align 1
@.str.37 = private unnamed_addr constant [8 x i8] c"IDAAres\00", align 1
@.str.38 = private unnamed_addr constant [30 x i8] c"Bad t = %g for interpolation.\00", align 1

; Function Attrs: nounwind uwtable
define internal i32 @IDAAres(double noundef %0, ptr noundef %1, ptr noundef %2, ptr noundef %3, ptr noundef %4) #0 {
  %6 = alloca i32, align 4
  %7 = alloca double, align 8
  %8 = alloca ptr, align 8
  %9 = alloca ptr, align 8
  %10 = alloca ptr, align 8
  %11 = alloca ptr, align 8
  %12 = alloca ptr, align 8
  %13 = alloca ptr, align 8
  %14 = alloca ptr, align 8
  %15 = alloca i32, align 4
  %16 = alloca i32, align 4
  %17 = alloca i32, align 4
  store double %0, ptr %7, align 8, !tbaa !73
  store ptr %1, ptr %8, align 8, !tbaa !74
  store ptr %2, ptr %9, align 8, !tbaa !74
  store ptr %3, ptr %10, align 8, !tbaa !74
  store ptr %4, ptr %11, align 8, !tbaa !3
  call void @llvm.lifetime.start.p0(i64 8, ptr %12) #6
  call void @llvm.lifetime.start.p0(i64 8, ptr %13) #6
  call void @llvm.lifetime.start.p0(i64 8, ptr %14) #6
  call void @llvm.lifetime.start.p0(i64 4, ptr %15) #6
  call void @llvm.lifetime.start.p0(i64 4, ptr %16) #6
  %18 = load ptr, ptr %11, align 8, !tbaa !3
  store ptr %18, ptr %14, align 8, !tbaa !11
  %19 = load ptr, ptr %14, align 8, !tbaa !11
  %20 = getelementptr inbounds nuw %struct.IDAMemRec, ptr %19, i32 0, i32 204
  %21 = load ptr, ptr %20, align 8, !tbaa !15
  store ptr %21, ptr %12, align 8, !tbaa !13
  %22 = load ptr, ptr %12, align 8, !tbaa !13
  %23 = getelementptr inbounds nuw %struct.IDAadjMemRec, ptr %22, i32 0, i32 7
  %24 = load ptr, ptr %23, align 8, !tbaa !45
  store ptr %24, ptr %13, align 8, !tbaa !132
  %25 = load ptr, ptr %12, align 8, !tbaa !13
  %26 = getelementptr inbounds nuw %struct.IDAadjMemRec, ptr %25, i32 0, i32 24
  %27 = load i32, ptr %26, align 8, !tbaa !43
  %28 = icmp eq i32 %27, 0
  br i1 %28, label %29, label %73

29:                                               ; preds = %5
  %30 = load ptr, ptr %12, align 8, !tbaa !13
  %31 = getelementptr inbounds nuw %struct.IDAadjMemRec, ptr %30, i32 0, i32 23
  %32 = load i32, ptr %31, align 4, !tbaa !42
  %33 = icmp ne i32 %32, 0
  br i1 %33, label %34, label %53

34:                                               ; preds = %29
  %35 = load ptr, ptr %12, align 8, !tbaa !13
  %36 = getelementptr inbounds nuw %struct.IDAadjMemRec, ptr %35, i32 0, i32 17
  %37 = load ptr, ptr %36, align 8, !tbaa !38
  %38 = load ptr, ptr %11, align 8, !tbaa !3
  %39 = load double, ptr %7, align 8, !tbaa !73
  %40 = load ptr, ptr %12, align 8, !tbaa !13
  %41 = getelementptr inbounds nuw %struct.IDAadjMemRec, ptr %40, i32 0, i32 28
  %42 = load ptr, ptr %41, align 8, !tbaa !30
  %43 = load ptr, ptr %12, align 8, !tbaa !13
  %44 = getelementptr inbounds nuw %struct.IDAadjMemRec, ptr %43, i32 0, i32 29
  %45 = load ptr, ptr %44, align 8, !tbaa !31
  %46 = load ptr, ptr %12, align 8, !tbaa !13
  %47 = getelementptr inbounds nuw %struct.IDAadjMemRec, ptr %46, i32 0, i32 30
  %48 = load ptr, ptr %47, align 8, !tbaa !32
  %49 = load ptr, ptr %12, align 8, !tbaa !13
  %50 = getelementptr inbounds nuw %struct.IDAadjMemRec, ptr %49, i32 0, i32 31
  %51 = load ptr, ptr %50, align 8, !tbaa !33
  %52 = call i32 %37(ptr noundef %38, double noundef %39, ptr noundef %42, ptr noundef %45, ptr noundef %48, ptr noundef %51)
  store i32 %52, ptr %15, align 4, !tbaa !9
  br label %66

53:                                               ; preds = %29
  %54 = load ptr, ptr %12, align 8, !tbaa !13
  %55 = getelementptr inbounds nuw %struct.IDAadjMemRec, ptr %54, i32 0, i32 17
  %56 = load ptr, ptr %55, align 8, !tbaa !38
  %57 = load ptr, ptr %11, align 8, !tbaa !3
  %58 = load double, ptr %7, align 8, !tbaa !73
  %59 = load ptr, ptr %12, align 8, !tbaa !13
  %60 = getelementptr inbounds nuw %struct.IDAadjMemRec, ptr %59, i32 0, i32 28
  %61 = load ptr, ptr %60, align 8, !tbaa !30
  %62 = load ptr, ptr %12, align 8, !tbaa !13
  %63 = getelementptr inbounds nuw %struct.IDAadjMemRec, ptr %62, i32 0, i32 29
  %64 = load ptr, ptr %63, align 8, !tbaa !31
  %65 = call i32 %56(ptr noundef %57, double noundef %58, ptr noundef %61, ptr noundef %64, ptr noundef null, ptr noundef null)
  store i32 %65, ptr %15, align 4, !tbaa !9
  br label %66

66:                                               ; preds = %53, %34
  %67 = load i32, ptr %15, align 4, !tbaa !9
  %68 = icmp ne i32 %67, 0
  br i1 %68, label %69, label %72

69:                                               ; preds = %66
  %70 = load ptr, ptr %14, align 8, !tbaa !11
  %71 = load double, ptr %7, align 8, !tbaa !73
  call void (ptr, i32, ptr, ptr, ptr, ...) @IDAProcessError(ptr noundef %70, i32 noundef -1, ptr noundef @.str, ptr noundef @.str.37, ptr noundef @.str.38, double noundef %71)
  store i32 -1, ptr %6, align 4
  store i32 1, ptr %17, align 4
  br label %122

72:                                               ; preds = %66
  br label %73

73:                                               ; preds = %72, %5
  %74 = load ptr, ptr %13, align 8, !tbaa !132
  %75 = getelementptr inbounds nuw %struct.IDABMemRec, ptr %74, i32 0, i32 3
  %76 = load i32, ptr %75, align 8, !tbaa !200
  %77 = icmp ne i32 %76, 0
  br i1 %77, label %78, label %102

78:                                               ; preds = %73
  %79 = load ptr, ptr %13, align 8, !tbaa !132
  %80 = getelementptr inbounds nuw %struct.IDABMemRec, ptr %79, i32 0, i32 6
  %81 = load ptr, ptr %80, align 8, !tbaa !194
  %82 = load double, ptr %7, align 8, !tbaa !73
  %83 = load ptr, ptr %12, align 8, !tbaa !13
  %84 = getelementptr inbounds nuw %struct.IDAadjMemRec, ptr %83, i32 0, i32 28
  %85 = load ptr, ptr %84, align 8, !tbaa !30
  %86 = load ptr, ptr %12, align 8, !tbaa !13
  %87 = getelementptr inbounds nuw %struct.IDAadjMemRec, ptr %86, i32 0, i32 29
  %88 = load ptr, ptr %87, align 8, !tbaa !31
  %89 = load ptr, ptr %12, align 8, !tbaa !13
  %90 = getelementptr inbounds nuw %struct.IDAadjMemRec, ptr %89, i32 0, i32 30
  %91 = load ptr, ptr %90, align 8, !tbaa !32
  %92 = load ptr, ptr %12, align 8, !tbaa !13
  %93 = getelementptr inbounds nuw %struct.IDAadjMemRec, ptr %92, i32 0, i32 31
  %94 = load ptr, ptr %93, align 8, !tbaa !33
  %95 = load ptr, ptr %8, align 8, !tbaa !74
  %96 = load ptr, ptr %9, align 8, !tbaa !74
  %97 = load ptr, ptr %10, align 8, !tbaa !74
  %98 = load ptr, ptr %13, align 8, !tbaa !132
  %99 = getelementptr inbounds nuw %struct.IDABMemRec, ptr %98, i32 0, i32 9
  %100 = load ptr, ptr %99, align 8, !tbaa !197
  %101 = call i32 %81(double noundef %82, ptr noundef %85, ptr noundef %88, ptr noundef %91, ptr noundef %94, ptr noundef %95, ptr noundef %96, ptr noundef %97, ptr noundef %100)
  store i32 %101, ptr %16, align 4, !tbaa !9
  br label %120

102:                                              ; preds = %73
  %103 = load ptr, ptr %13, align 8, !tbaa !132
  %104 = getelementptr inbounds nuw %struct.IDABMemRec, ptr %103, i32 0, i32 5
  %105 = load ptr, ptr %104, align 8, !tbaa !193
  %106 = load double, ptr %7, align 8, !tbaa !73
  %107 = load ptr, ptr %12, align 8, !tbaa !13
  %108 = getelementptr inbounds nuw %struct.IDAadjMemRec, ptr %107, i32 0, i32 28
  %109 = load ptr, ptr %108, align 8, !tbaa !30
  %110 = load ptr, ptr %12, align 8, !tbaa !13
  %111 = getelementptr inbounds nuw %struct.IDAadjMemRec, ptr %110, i32 0, i32 29
  %112 = load ptr, ptr %111, align 8, !tbaa !31
  %113 = load ptr, ptr %8, align 8, !tbaa !74
  %114 = load ptr, ptr %9, align 8, !tbaa !74
  %115 = load ptr, ptr %10, align 8, !tbaa !74
  %116 = load ptr, ptr %13, align 8, !tbaa !132
  %117 = getelementptr inbounds nuw %struct.IDABMemRec, ptr %116, i32 0, i32 9
  %118 = load ptr, ptr %117, align 8, !tbaa !197
  %119 = call i32 %105(double noundef %106, ptr noundef %109, ptr noundef %112, ptr noundef %113, ptr noundef %114, ptr noundef %115, ptr noundef %118)
  store i32 %119, ptr %16, align 4, !tbaa !9
  br label %120

120:                                              ; preds = %102, %78
  %121 = load i32, ptr %16, align 4, !tbaa !9
  store i32 %121, ptr %6, align 4
  store i32 1, ptr %17, align 4
  br label %122

122:                                              ; preds = %120, %69
  call void @llvm.lifetime.end.p0(i64 4, ptr %16) #6
  call void @llvm.lifetime.end.p0(i64 4, ptr %15) #6
  call void @llvm.lifetime.end.p0(i64 8, ptr %14) #6
  call void @llvm.lifetime.end.p0(i64 8, ptr %13) #6
  call void @llvm.lifetime.end.p0(i64 8, ptr %12) #6
  %123 = load i32, ptr %6, align 4
  ret i32 %123
}